; Function Attrs: null_pointer_is_valid sspstrong uwtable
define range(i64 0, 281474976710656) i64 @tvb_get_letoh48(ptr noundef %0, i32 noundef %1) local_unnamed_addr #0 {
  %3 = tail call fastcc ptr @fast_ensure_contiguous(ptr noundef %0, i32 noundef %1, i32 noundef 6)
  %4 = getelementptr i8, ptr %3, i64 2
  %5 = load i32, ptr %4, align 1
  %6 = zext i32 %5 to i64
  %7 = shl nuw nsw i64 %6, 16
  %8 = getelementptr i8, ptr %3, i64 1
  %9 = load i8, ptr %8, align 1
  %10 = zext i8 %9 to i64
  %11 = shl nuw nsw i64 %10, 8
  %12 = or disjoint i64 %11, %7
  %13 = load i8, ptr %3, align 1
  %14 = zext i8 %13 to i64
  %15 = or disjoint i64 %12, %14
  ret i64 %15
}